target datalayout = "e-m:e-p270:32:32-p271:32:32-p272:64:64-i64:64-i128:128-f80:128-n8:16:32:64-S128"
target triple = "x86_64-pc-linux-gnu"

@.str = private unnamed_addr constant [25 x i8] c"fixed point overflow in \00", align 1

; Function Attrs: noreturn nounwind uwtable
define void @png_fixed_error(ptr noalias noundef %0, ptr noundef %1) #0 {
  %3 = alloca ptr, align 8
  %4 = alloca ptr, align 8
  %5 = alloca i32, align 4
  %6 = alloca [220 x i8], align 16
  store ptr %0, ptr %3, align 8, !tbaa !3
  store ptr %1, ptr %4, align 8, !tbaa !8
  call void @llvm.lifetime.start.p0(i64 4, ptr %5) #10
  call void @llvm.lifetime.start.p0(i64 220, ptr %6) #10
  %7 = getelementptr inbounds [220 x i8], ptr %6, i64 0, i64 0
  call void @llvm.memcpy.p0.p0.i64(ptr align 16 %7, ptr align 1 @.str, i64 24, i1 false)
  store i32 0, ptr %5, align 4, !tbaa !31
  %8 = load ptr, ptr %4, align 8, !tbaa !8
  %9 = icmp ne ptr %8, null
  br i1 %9, label %10, label %37

10:                                               ; preds = %2
  br label %11

11:                                               ; preds = %24, %10
  %12 = load i32, ptr %5, align 4, !tbaa !31
  %13 = icmp ult i32 %12, 195
  br i1 %13, label %14, label %22

14:                                               ; preds = %11
  %15 = load ptr, ptr %4, align 8, !tbaa !8
  %16 = load i32, ptr %5, align 4, !tbaa !31
  %17 = zext i32 %16 to i64
  %18 = getelementptr inbounds nuw i8, ptr %15, i64 %17
  %19 = load i8, ptr %18, align 1, !tbaa !28
  %20 = sext i8 %19 to i32
  %21 = icmp ne i32 %20, 0
  br label %22

22:                                               ; preds = %14, %11
  %23 = phi i1 [ false, %11 ], [ %21, %14 ]
  br i1 %23, label %24, label %36

24:                                               ; preds = %22
  %25 = load ptr, ptr %4, align 8, !tbaa !8
  %26 = load i32, ptr %5, align 4, !tbaa !31
  %27 = zext i32 %26 to i64
  %28 = getelementptr inbounds nuw i8, ptr %25, i64 %27
  %29 = load i8, ptr %28, align 1, !tbaa !28
  %30 = load i32, ptr %5, align 4, !tbaa !31
  %31 = zext i32 %30 to i64
  %32 = add i64 24, %31
  %33 = getelementptr inbounds nuw [220 x i8], ptr %6, i64 0, i64 %32
  store i8 %29, ptr %33, align 1, !tbaa !28
  %34 = load i32, ptr %5, align 4, !tbaa !31
  %35 = add i32 %34, 1
  store i32 %35, ptr %5, align 4, !tbaa !31
  br label %11, !llvm.loop !43

36:                                               ; preds = %22
  br label %37

37:                                               ; preds = %36, %2
  %38 = load i32, ptr %5, align 4, !tbaa !31
  %39 = zext i32 %38 to i64
  %40 = add i64 24, %39
  %41 = getelementptr inbounds nuw [220 x i8], ptr %6, i64 0, i64 %40
  store i8 0, ptr %41, align 1, !tbaa !28
  %42 = load ptr, ptr %3, align 8, !tbaa !3
  %43 = getelementptr inbounds [220 x i8], ptr %6, i64 0, i64 0
  call void @png_error(ptr noundef %42, ptr noundef %43) #9
  unreachable
}