; Function Attrs: noreturn nounwind uwtable
define void @png_fixed_error(ptr noalias noundef %0, ptr noundef readonly captures(address_is_null) %1) local_unnamed_addr #0 {
  %3 = alloca [220 x i8], align 16
  call void @llvm.lifetime.start.p0(i64 220, ptr nonnull %3) #21
  call void @llvm.memcpy.p0.p0.i64(ptr noundef nonnull align 16 dereferenceable(24) %3, ptr noundef nonnull align 1 dereferenceable(24) @.str, i64 24, i1 false)
  %.not = icmp eq ptr %1, null
  br i1 %.not, label %.critedge, label %.preheader

.preheader:                                       ; preds = %2, %6
  %indvars.iv = phi i64 [ %indvars.iv.next, %6 ], [ 0, %2 ]
  %4 = getelementptr inbounds nuw i8, ptr %1, i64 %indvars.iv
  %5 = load i8, ptr %4, align 1, !tbaa !24
  %.not13 = icmp eq i8 %5, 0
  br i1 %.not13, label %.critedge.loopexit, label %6

6:                                                ; preds = %.preheader
  %7 = add nuw nsw i64 %indvars.iv, 24
  %8 = getelementptr inbounds nuw [220 x i8], ptr %3, i64 0, i64 %7
  store i8 %5, ptr %8, align 1, !tbaa !24
  %indvars.iv.next = add nuw nsw i64 %indvars.iv, 1
  %exitcond.not = icmp eq i64 %indvars.iv.next, 195
  br i1 %exitcond.not, label %.critedge.loopexit, label %.preheader

.critedge.loopexit:                               ; preds = %6, %.preheader
  %.0.ph = phi i64 [ 195, %6 ], [ %indvars.iv, %.preheader ]
  %9 = and i64 %.0.ph, 4294967295
  %10 = add nuw nsw i64 %9, 24
  br label %.critedge

.critedge:                                        ; preds = %.critedge.loopexit, %2
  %.0 = phi i64 [ 24, %2 ], [ %10, %.critedge.loopexit ]
  %11 = getelementptr inbounds nuw [220 x i8], ptr %3, i64 0, i64 %.0
  store i8 0, ptr %11, align 1, !tbaa !24
  call void @png_error(ptr noundef %0, ptr noundef nonnull %3) #22
  unreachable
}